target datalayout = "e-m:e-p270:32:32-p271:32:32-p272:64:64-i64:64-i128:128-f80:128-n8:16:32:64-S128"
target triple = "x86_64-pc-linux-gnu"

%"class.b3ConvexHullInternal::Int128" = type { i64, i64 }

; Function Attrs: mustprogress nounwind uwtable
define linkonce_odr dso_local void @_ZN20b3ConvexHullInternal4DMulImjE7shlHalfERm(ptr noundef nonnull align 8 dereferenceable(8) %0) #3 comdat align 2 {
  %2 = alloca ptr, align 8
  store ptr %0, ptr %2, align 8, !tbaa !19
  %3 = load ptr, ptr %2, align 8, !tbaa !19
  %4 = load i64, ptr %3, align 8, !tbaa !9
  %5 = shl i64 %4, 32
  store i64 %5, ptr %3, align 8, !tbaa !9
  ret void
}

; Function Attrs: mustprogress nounwind uwtable
define linkonce_odr dso_local noundef i32 @_ZN20b3ConvexHullInternal4DMulImjE4highEm(i64 noundef %0) #3 comdat align 2 {
  %2 = alloca i64, align 8
  store i64 %0, ptr %2, align 8, !tbaa !9
  %3 = load i64, ptr %2, align 8, !tbaa !9
  %4 = lshr i64 %3, 32
  %5 = trunc i64 %4 to i32
  ret i32 %5
}

; Function Attrs: mustprogress nounwind uwtable
define linkonce_odr dso_local noundef i64 @_ZN20b3ConvexHullInternal4DMulImjE3mulEjj(i32 noundef %0, i32 noundef %1) #3 comdat align 2 {
  %3 = alloca i32, align 4
  %4 = alloca i32, align 4
  store i32 %0, ptr %3, align 4, !tbaa !34
  store i32 %1, ptr %4, align 4, !tbaa !34
  %5 = load i32, ptr %3, align 4, !tbaa !34
  %6 = zext i32 %5 to i64
  %7 = load i32, ptr %4, align 4, !tbaa !34
  %8 = zext i32 %7 to i64
  %9 = mul i64 %6, %8
  ret i64 %9
}

; Function Attrs: mustprogress nounwind uwtable
define linkonce_odr dso_local noundef i32 @_ZN20b3ConvexHullInternal4DMulImjE3lowEm(i64 noundef %0) #3 comdat align 2 {
  %2 = alloca i64, align 8
  store i64 %0, ptr %2, align 8, !tbaa !9
  %3 = load i64, ptr %2, align 8, !tbaa !9
  %4 = trunc i64 %3 to i32
  ret i32 %4
}

; Function Attrs: mustprogress uwtable
define linkonce_odr dso_local void @_ZN20b3ConvexHullInternal4DMulImjE3mulEmmRmS2_(i64 noundef %0, i64 noundef %1, ptr noundef nonnull align 8 dereferenceable(8) %2, ptr noundef nonnull align 8 dereferenceable(8) %3) #0 comdat align 2 {
  %5 = alloca i64, align 8
  %6 = alloca i64, align 8
  %7 = alloca ptr, align 8
  %8 = alloca ptr, align 8
  %9 = alloca i64, align 8
  %10 = alloca i64, align 8
  %11 = alloca i64, align 8
  %12 = alloca i64, align 8
  %13 = alloca i64, align 8
  store i64 %0, ptr %5, align 8, !tbaa !9
  store i64 %1, ptr %6, align 8, !tbaa !9
  store ptr %2, ptr %7, align 8, !tbaa !19
  store ptr %3, ptr %8, align 8, !tbaa !19
  call void @llvm.lifetime.start.p0(i64 8, ptr %9) #13
  %14 = load i64, ptr %5, align 8, !tbaa !9
  %15 = call noundef i32 @_ZN20b3ConvexHullInternal4DMulImjE3lowEm(i64 noundef %14)
  %16 = load i64, ptr %6, align 8, !tbaa !9
  %17 = call noundef i32 @_ZN20b3ConvexHullInternal4DMulImjE3lowEm(i64 noundef %16)
  %18 = call noundef i64 @_ZN20b3ConvexHullInternal4DMulImjE3mulEjj(i32 noundef %15, i32 noundef %17)
  store i64 %18, ptr %9, align 8, !tbaa !9
  call void @llvm.lifetime.start.p0(i64 8, ptr %10) #13
  %19 = load i64, ptr %5, align 8, !tbaa !9
  %20 = call noundef i32 @_ZN20b3ConvexHullInternal4DMulImjE3lowEm(i64 noundef %19)
  %21 = load i64, ptr %6, align 8, !tbaa !9
  %22 = call noundef i32 @_ZN20b3ConvexHullInternal4DMulImjE4highEm(i64 noundef %21)
  %23 = call noundef i64 @_ZN20b3ConvexHullInternal4DMulImjE3mulEjj(i32 noundef %20, i32 noundef %22)
  store i64 %23, ptr %10, align 8, !tbaa !9
  call void @llvm.lifetime.start.p0(i64 8, ptr %11) #13
  %24 = load i64, ptr %5, align 8, !tbaa !9
  %25 = call noundef i32 @_ZN20b3ConvexHullInternal4DMulImjE4highEm(i64 noundef %24)
  %26 = load i64, ptr %6, align 8, !tbaa !9
  %27 = call noundef i32 @_ZN20b3ConvexHullInternal4DMulImjE3lowEm(i64 noundef %26)
  %28 = call noundef i64 @_ZN20b3ConvexHullInternal4DMulImjE3mulEjj(i32 noundef %25, i32 noundef %27)
  store i64 %28, ptr %11, align 8, !tbaa !9
  call void @llvm.lifetime.start.p0(i64 8, ptr %12) #13
  %29 = load i64, ptr %5, align 8, !tbaa !9
  %30 = call noundef i32 @_ZN20b3ConvexHullInternal4DMulImjE4highEm(i64 noundef %29)
  %31 = load i64, ptr %6, align 8, !tbaa !9
  %32 = call noundef i32 @_ZN20b3ConvexHullInternal4DMulImjE4highEm(i64 noundef %31)
  %33 = call noundef i64 @_ZN20b3ConvexHullInternal4DMulImjE3mulEjj(i32 noundef %30, i32 noundef %32)
  store i64 %33, ptr %12, align 8, !tbaa !9
  call void @llvm.lifetime.start.p0(i64 8, ptr %13) #13
  %34 = load i64, ptr %10, align 8, !tbaa !9
  %35 = call noundef i32 @_ZN20b3ConvexHullInternal4DMulImjE3lowEm(i64 noundef %34)
  %36 = zext i32 %35 to i64
  %37 = load i64, ptr %11, align 8, !tbaa !9
  %38 = call noundef i32 @_ZN20b3ConvexHullInternal4DMulImjE3lowEm(i64 noundef %37)
  %39 = zext i32 %38 to i64
  %40 = add i64 %36, %39
  store i64 %40, ptr %13, align 8, !tbaa !9
  %41 = load i64, ptr %10, align 8, !tbaa !9
  %42 = call noundef i32 @_ZN20b3ConvexHullInternal4DMulImjE4highEm(i64 noundef %41)
  %43 = zext i32 %42 to i64
  %44 = load i64, ptr %12, align 8, !tbaa !9
  %45 = add i64 %44, %43
  store i64 %45, ptr %12, align 8, !tbaa !9
  %46 = load i64, ptr %11, align 8, !tbaa !9
  %47 = call noundef i32 @_ZN20b3ConvexHullInternal4DMulImjE4highEm(i64 noundef %46)
  %48 = zext i32 %47 to i64
  %49 = load i64, ptr %12, align 8, !tbaa !9
  %50 = add i64 %49, %48
  store i64 %50, ptr %12, align 8, !tbaa !9
  %51 = load i64, ptr %13, align 8, !tbaa !9
  %52 = call noundef i32 @_ZN20b3ConvexHullInternal4DMulImjE4highEm(i64 noundef %51)
  %53 = zext i32 %52 to i64
  %54 = load i64, ptr %12, align 8, !tbaa !9
  %55 = add i64 %54, %53
  store i64 %55, ptr %12, align 8, !tbaa !9
  call void @_ZN20b3ConvexHullInternal4DMulImjE7shlHalfERm(ptr noundef nonnull align 8 dereferenceable(8) %13)
  %56 = load i64, ptr %13, align 8, !tbaa !9
  %57 = load i64, ptr %9, align 8, !tbaa !9
  %58 = add i64 %57, %56
  store i64 %58, ptr %9, align 8, !tbaa !9
  %59 = load i64, ptr %9, align 8, !tbaa !9
  %60 = load i64, ptr %13, align 8, !tbaa !9
  %61 = icmp ult i64 %59, %60
  br i1 %61, label %62, label %65

62:                                               ; preds = %4
  %63 = load i64, ptr %12, align 8, !tbaa !9
  %64 = add i64 %63, 1
  store i64 %64, ptr %12, align 8, !tbaa !9
  br label %65

65:                                               ; preds = %62, %4
  %66 = load i64, ptr %9, align 8, !tbaa !9
  %67 = load ptr, ptr %7, align 8, !tbaa !19
  store i64 %66, ptr %67, align 8, !tbaa !9
  %68 = load i64, ptr %12, align 8, !tbaa !9
  %69 = load ptr, ptr %8, align 8, !tbaa !19
  store i64 %68, ptr %69, align 8, !tbaa !9
  call void @llvm.lifetime.end.p0(i64 8, ptr %13) #13
  call void @llvm.lifetime.end.p0(i64 8, ptr %12) #13
  call void @llvm.lifetime.end.p0(i64 8, ptr %11) #13
  call void @llvm.lifetime.end.p0(i64 8, ptr %10) #13
  call void @llvm.lifetime.end.p0(i64 8, ptr %9) #13
  ret void
}

; Function Attrs: mustprogress nounwind uwtable
define linkonce_odr dso_local void @_ZN20b3ConvexHullInternal6Int128C2Ev(ptr noundef nonnull align 8 dereferenceable(16) %0) unnamed_addr #3 comdat align 2 {
  %2 = alloca ptr, align 8
  store ptr %0, ptr %2, align 8, !tbaa !4
  ret void
}

; Function Attrs: mustprogress uwtable
define dso_local { i64, i64 } @_ZN20b3ConvexHullInternal6Int1283mulEmm(i64 noundef %0, i64 noundef %1) #0 align 2 {
  %3 = alloca %"class.b3ConvexHullInternal::Int128", align 8
  %4 = alloca i64, align 8
  %5 = alloca i64, align 8
  store i64 %0, ptr %4, align 8, !tbaa !9
  store i64 %1, ptr %5, align 8, !tbaa !9
  call void @_ZN20b3ConvexHullInternal6Int128C2Ev(ptr noundef nonnull align 8 dereferenceable(16) %3)
  %6 = load i64, ptr %4, align 8, !tbaa !9
  %7 = load i64, ptr %5, align 8, !tbaa !9
  %8 = getelementptr inbounds nuw %"class.b3ConvexHullInternal::Int128", ptr %3, i32 0, i32 0
  %9 = getelementptr inbounds nuw %"class.b3ConvexHullInternal::Int128", ptr %3, i32 0, i32 1
  call void @_ZN20b3ConvexHullInternal4DMulImjE3mulEmmRmS2_(i64 noundef %6, i64 noundef %7, ptr noundef nonnull align 8 dereferenceable(8) %8, ptr noundef nonnull align 8 dereferenceable(8) %9)
  %10 = load { i64, i64 }, ptr %3, align 8
  ret { i64, i64 } %10
}