; Function Attrs: mustprogress nofree norecurse nosync nounwind willreturn memory(none) uwtable
define dso_local { i64, i64 } @_ZN20b3ConvexHullInternal6Int1283mulEmm(i64 noundef %0, i64 noundef %1) local_unnamed_addr #3 align 2 {
  %3 = and i64 %0, 4294967295
  %4 = and i64 %1, 4294967295
  %5 = mul nuw i64 %4, %3
  %6 = lshr i64 %1, 32
  %7 = mul nuw i64 %6, %3
  %8 = lshr i64 %0, 32
  %9 = mul nuw i64 %4, %8
  %10 = mul nuw i64 %6, %8
  %11 = and i64 %7, 4294967295
  %12 = and i64 %9, 4294967295
  %13 = add nuw nsw i64 %11, %12
  %14 = lshr i64 %7, 32
  %15 = add nuw i64 %14, %10
  %16 = lshr i64 %9, 32
  %17 = add nuw i64 %15, %16
  %18 = lshr i64 %13, 32
  %19 = add nuw i64 %17, %18
  %20 = shl i64 %13, 32
  %21 = add i64 %20, %5
  %22 = icmp ult i64 %21, %20
  %23 = zext i1 %22 to i64
  %spec.select.i = add nuw i64 %19, %23
  %.fca.0.insert = insertvalue { i64, i64 } poison, i64 %21, 0
  %.fca.1.insert = insertvalue { i64, i64 } %.fca.0.insert, i64 %spec.select.i, 1
  ret { i64, i64 } %.fca.1.insert
}